Certificate:
    Data:
        Version: 3 (0x2)
        Serial Number: 1 (0x1)
    Signature Algorithm: sha256WithRSAEncryption
        Issuer: C=SE, ST=Stockholm, L=Stockholm, O=Infrasec Sweden AB, OU=Central Control Unit Verify, CN=CA CCU Verify/emailAddress=cert@infrasec.se
        Validity
            Not Before: Apr 21 16:18:08 2015 GMT
            Not After : Apr 15 16:18:08 2037 GMT
        Subject: C=SE, ST=Stockholm, L=Stockholm, O=Infrasec Sweden AB, OU=Central Control Unit Verify, CN=CA CCU Verify/emailAddress=cert@infrasec.se
        Subject Public Key Info:
            Public Key Algorithm: rsaEncryption
                Public-Key: (4096 bit)
                Modulus:
                    00:cb:24:a8:32:7c:69:be:13:d7:27:02:8b:9a:c8:
                    49:d3:7a:95:e7:e0:28:ab:35:81:26:66:03:19:a0:
                    47:c2:ca:a0:29:68:31:dc:87:ce:d4:20:e1:f9:15:
                    1f:81:52:66:7f:91:3c:40:4b:7c:04:40:76:2e:ac:
                    4e:74:63:e4:02:e4:6c:52:92:b9:46:83:49:80:88:
                    ec:91:d9:6b:45:db:55:26:76:25:37:29:62:76:80:
                    9a:20:74:b1:e2:eb:7b:d6:b5:31:7c:8e:19:65:34:
                    32:94:09:34:12:fb:a7:a4:b3:80:02:a6:31:47:62:
                    5f:1a:f8:c2:b9:93:b6:a3:95:a8:4f:33:7f:d8:f0:
                    df:77:60:05:7b:68:05:c0:bc:01:c3:3f:b2:e7:c1:
                    b4:2e:da:cf:2f:cb:e6:0d:41:d1:dc:0f:44:65:9d:
                    75:71:c2:de:b4:d9:2b:e6:1a:ca:60:68:39:e1:43:
                    b8:59:da:4c:38:65:06:66:06:88:18:1c:4c:b8:f2:
                    a4:e0:12:6d:c7:4a:12:98:92:a8:45:4a:69:97:bc:
                    ec:96:4e:1f:b9:8c:f4:2c:3a:a5:85:48:fc:2f:6a:
                    e5:54:7a:de:fd:43:e5:53:85:23:5a:4d:bd:6f:3d:
                    71:11:da:77:81:14:12:79:44:bf:c9:45:cd:e4:53:
                    95:6d:aa:04:aa:28:16:97:43:25:00:b1:ce:02:4c:
                    86:cb:e4:6f:dc:c5:7e:ea:10:97:54:3d:57:ef:93:
                    4a:ed:1d:60:95:b0:e9:02:48:56:ca:f6:81:2c:86:
                    58:38:a0:af:43:1f:03:71:d5:14:2d:68:5a:bb:13:
                    74:c4:39:5d:dc:0a:52:06:45:0c:31:0a:1f:18:3d:
                    dc:ab:b3:75:3c:d3:12:fd:de:f5:ab:51:5d:d2:f3:
                    b6:89:65:2c:fc:a2:66:de:4c:3d:32:66:14:c0:c9:
                    4d:17:37:d1:62:c6:be:4a:11:70:67:f8:b6:18:95:
                    44:fc:47:c6:80:71:c2:7f:65:47:de:84:d2:79:d8:
                    3b:9a:4e:b6:a9:c5:60:fb:f6:dd:0d:fd:d8:91:60:
                    55:2f:b2:63:fb:51:62:f3:78:11:a9:6f:cc:fe:1e:
                    bb:82:71:c0:a1:a2:fa:c0:9e:2f:ce:4e:3b:90:fe:
                    27:4e:bd:fd:5f:3c:f1:5d:03:ed:06:19:37:46:5a:
                    1f:d8:66:f4:ae:dd:04:fe:40:dd:aa:69:39:1a:87:
                    b8:0d:ae:58:bb:82:c1:e5:9d:e1:55:f2:3d:c5:ed:
                    7c:fc:60:63:62:35:2b:6a:1a:af:83:26:de:fc:54:
                    e9:8a:a7:39:15:88:bb:b1:d7:81:a5:ea:3f:ee:2a:
                    4d:8d:2f
                Exponent: 65537 (0x10001)
        X509v3 extensions:
            X509v3 Subject Key Identifier: 
                0F:21:B3:45:50:3F:03:23:82:D2:4F:29:7A:96:49:C2:F0:FB:2C:E8
            X509v3 Authority Key Identifier: 
                keyid:0F:21:B3:45:50:3F:03:23:82:D2:4F:29:7A:96:49:C2:F0:FB:2C:E8
                DirName:/C=SE/ST=Stockholm/L=Stockholm/O=Infrasec Sweden AB/OU=Central Control Unit Verify/CN=CA CCU Verify/emailAddress=cert@infrasec.se
                serial:01

            X509v3 Certificate Policies: 
                Policy: oid_infrasec_cp_idm

            X509v3 Basic Constraints: 
                CA:TRUE
    Signature Algorithm: sha256WithRSAEncryption
         85:de:79:54:5e:a7:e8:f3:e9:4d:1e:81:57:dd:1a:9e:cc:b1:
         3a:1c:e7:97:40:1f:f0:c7:31:e5:c6:2d:af:60:4a:4a:7b:9d:
         b6:18:c1:d6:ed:c1:b1:8c:42:07:44:57:39:9f:5e:e2:a9:c2:
         c7:f3:bb:fb:2a:80:e0:e2:67:4b:94:7d:1d:d6:ec:e6:bd:cb:
         48:19:1b:5d:f8:24:65:cb:1c:0b:e7:eb:d7:a9:ba:5a:01:fb:
         1b:bf:48:2c:a9:75:ee:86:ea:4a:cd:a7:cd:ac:a7:ad:04:26:
         34:62:ee:a9:4d:8e:45:fd:13:3c:ec:25:d8:71:b4:02:84:ce:
         7d:fc:6d:06:ca:2a:6c:71:53:1e:4a:5f:d4:6a:ff:b5:98:17:
         6d:c8:f9:28:43:fb:ea:77:77:8e:9b:b4:17:cd:0a:7e:53:39:
         d2:a1:4a:24:4b:2b:0c:6e:82:d1:e3:ef:d2:02:ee:9a:90:72:
         b3:54:4b:ca:df:86:9d:21:7a:04:e6:25:81:ad:69:56:f4:6f:
         0d:88:94:c3:0d:47:7c:eb:a3:2c:57:0e:f4:2d:c7:2f:bd:20:
         08:f2:11:66:00:c0:72:82:6b:2a:98:ab:c4:bc:b0:87:1c:92:
         40:0b:65:be:59:f9:30:74:75:5c:56:81:33:86:16:80:3b:ac:
         d7:27:65:85:c8:81:95:b7:55:19:80:f6:ec:00:fd:6a:6e:c1:
         1e:2b:c8:ea:ad:48:11:2e:ff:75:64:1b:39:4d:19:6e:0a:4a:
         9d:52:32:6e:5a:b9:6f:e7:26:b6:8f:14:55:53:b1:25:d8:2c:
         6e:02:7d:6f:ce:f4:76:59:d3:06:86:f7:0d:9b:33:a3:03:62:
         2d:07:8a:fc:9f:e9:5e:8b:35:26:06:ee:cb:38:72:04:5b:40:
         fa:8d:90:0f:91:63:37:5f:77:7a:4a:5f:bd:2c:0e:39:db:57:
         84:04:1e:b2:13:a2:ba:0f:60:2b:80:1b:8f:ad:87:12:b6:85:
         5e:1e:d5:54:c5:36:ad:ad:96:83:e1:c4:7a:3d:8d:cd:d6:f6:
         93:da:6f:9d:67:df:ed:e8:36:f5:16:fc:58:e2:dd:b5:25:e6:
         80:18:50:99:5c:cf:bd:64:f6:f7:77:f2:2d:ca:3e:4a:10:af:
         4d:69:76:6d:ad:bd:eb:0b:16:37:ed:d8:8c:c7:f2:14:96:33:
         ff:2d:fc:36:cc:b3:ff:53:93:cd:2a:e0:3c:88:97:a6:ac:7f:
         f3:f6:e3:b9:5f:38:7f:da:c5:0c:1c:73:1a:13:e7:9d:b1:f2:
         f9:7b:db:72:41:2d:d6:75:6a:52:20:59:c9:c1:e7:f2:94:a7:
         e8:2d:24:a7:7d:3c:d8:c7
-----BEGIN CERTIFICATE-----
MIIHDTCCBPWgAwIBAgIBATANBgkqhkiG9w0BAQsFADCBsTELMAkGA1UEBhMCU0Ux
EjAQBgNVBAgTCVN0b2NraG9sbTESMBAGA1UEBxMJU3RvY2tob2xtMRswGQYDVQQK
ExJJbmZyYXNlYyBTd2VkZW4gQUIxJDAiBgNVBAsTG0NlbnRyYWwgQ29udHJvbCBV
bml0IFZlcmlmeTEWMBQGA1UEAxMNQ0EgQ0NVIFZlcmlmeTEfMB0GCSqGSIb3DQEJ
ARYQY2VydEBpbmZyYXNlYy5zZTAeFw0xNTA0MjExNjE4MDhaFw0zNzA0MTUxNjE4
MDhaMIGxMQswCQYDVQQGEwJTRTESMBAGA1UECBMJU3RvY2tob2xtMRIwEAYDVQQH
EwlTdG9ja2hvbG0xGzAZBgNVBAoTEkluZnJhc2VjIFN3ZWRlbiBBQjEkMCIGA1UE
CxMbQ2VudHJhbCBDb250cm9sIFVuaXQgVmVyaWZ5MRYwFAYDVQQDEw1DQSBDQ1Ug
VmVyaWZ5MR8wHQYJKoZIhvcNAQkBFhBjZXJ0QGluZnJhc2VjLnNlMIICIjANBgkq
hkiG9w0BAQEFAAOCAg8AMIICCgKCAgEAyySoMnxpvhPXJwKLmshJ03qV5+AoqzWB
JmYDGaBHwsqgKWgx3IfO1CDh+RUfgVJmf5E8QEt8BEB2LqxOdGPkAuRsUpK5RoNJ
gIjskdlrRdtVJnYlNylidoCaIHSx4ut71rUxfI4ZZTQylAk0EvunpLOAAqYxR2Jf
GvjCuZO2o5WoTzN/2PDfd2AFe2gFwLwBwz+y58G0LtrPL8vmDUHR3A9EZZ11ccLe
tNkr5hrKYGg54UO4WdpMOGUGZgaIGBxMuPKk4BJtx0oSmJKoRUppl7zslk4fuYz0
LDqlhUj8L2rlVHre/UPlU4UjWk29bz1xEdp3gRQSeUS/yUXN5FOVbaoEqigWl0Ml
ALHOAkyGy+Rv3MV+6hCXVD1X75NK7R1glbDpAkhWyvaBLIZYOKCvQx8DcdUULWha
uxN0xDld3ApSBkUMMQofGD3cq7N1PNMS/d71q1Fd0vO2iWUs/KJm3kw9MmYUwMlN
FzfRYsa+ShFwZ/i2GJVE/EfGgHHCf2VH3oTSedg7mk62qcVg+/bdDf3YkWBVL7Jj
+1Fi83gRqW/M/h67gnHAoaL6wJ4vzk47kP4nTr39XzzxXQPtBhk3Rlof2Gb0rt0E
/kDdqmk5Goe4Da5Yu4LB5Z3hVfI9xe18/GBjYjUrahqvgybe/FTpiqc5FYi7sdeB
peo/7ipNjS8CAwEAAaOCASwwggEoMB0GA1UdDgQWBBQPIbNFUD8DI4LSTyl6lknC
8Pss6DCB3gYDVR0jBIHWMIHTgBQPIbNFUD8DI4LSTyl6lknC8Pss6KGBt6SBtDCB
sTELMAkGA1UEBhMCU0UxEjAQBgNVBAgTCVN0b2NraG9sbTESMBAGA1UEBxMJU3Rv
Y2tob2xtMRswGQYDVQQKExJJbmZyYXNlYyBTd2VkZW4gQUIxJDAiBgNVBAsTG0Nl
bnRyYWwgQ29udHJvbCBVbml0IFZlcmlmeTEWMBQGA1UEAxMNQ0EgQ0NVIFZlcmlm
eTEfMB0GCSqGSIb3DQEJARYQY2VydEBpbmZyYXNlYy5zZYIBATAYBgNVHSAEETAP
MA0GCysGAQQBgYIwBAEFMAwGA1UdEwQFMAMBAf8wDQYJKoZIhvcNAQELBQADggIB
AIXeeVRep+jz6U0egVfdGp7MsToc55dAH/DHMeXGLa9gSkp7nbYYwdbtwbGMQgdE
VzmfXuKpwsfzu/sqgODiZ0uUfR3W7Oa9y0gZG134JGXLHAvn69epuloB+xu/SCyp
de6G6krNp82sp60EJjRi7qlNjkX9EzzsJdhxtAKEzn38bQbKKmxxUx5KX9Rq/7WY
F23I+ShD++p3d46btBfNCn5TOdKhSiRLKwxugtHj79IC7pqQcrNUS8rfhp0hegTm
JYGtaVb0bw2IlMMNR3zroyxXDvQtxy+9IAjyEWYAwHKCayqYq8S8sIcckkALZb5Z
+TB0dVxWgTOGFoA7rNcnZYXIgZW3VRmA9uwA/WpuwR4ryOqtSBEu/3VkGzlNGW4K
Sp1SMm5auW/nJraPFFVTsSXYLG4CfW/O9HZZ0waG9w2bM6MDYi0Hivyf6V6LNSYG
7ss4cgRbQPqNkA+RYzdfd3pKX70sDjnbV4QEHrIToroPYCuAG4+thxK2hV4e1VTF
Nq2tloPhxHo9jc3W9pPab51n3+3oNvUW/Fji3bUl5oAYUJlcz71k9vd38i3KPkoQ
r01pdm2tvesLFjft2IzH8hSWM/8t/DbMs/9Tk80q4DyIl6asf/P247lfOH/axQwc
cxoT552x8vl723JBLdZ1alIgWcnB5/KUp+gtJKd9PNjH
-----END CERTIFICATE-----
Certificate:
    Data:
        Version: 3 (0x2)
        Serial Number: 4 (0x4)
    Signature Algorithm: sha256WithRSAEncryption
        Issuer: C=SE, ST=Stockholm, L=Stockholm, O=Infrasec Sweden AB, OU=Central Control Unit Verify, CN=CA CCU Verify/emailAddress=cert@infrasec.se
        Validity
            Not Before: Apr 21 16:18:11 2015 GMT
            Not After : Apr 14 16:18:11 2037 GMT
        Subject: C=SE, O=Infrasec Sweden AB, OU=Central Control Unit Verify, CN=CA CCU Verify Server CA/emailAddress=cert@infrasec.se
        Subject Public Key Info:
            Public Key Algorithm: rsaEncryption
                Public-Key: (4096 bit)
                Modulus:
                    00:e5:41:8c:8e:34:d1:98:0b:a2:34:0a:55:d0:8c:
                    95:61:e8:a5:9a:c8:e4:58:26:1d:47:aa:ec:03:6d:
                    3b:61:a2:b6:50:ac:cf:41:a8:b5:7f:66:75:9d:b8:
                    df:5d:81:06:d1:d4:1b:19:a8:13:da:ec:be:a2:a3:
                    cd:33:c2:cb:51:35:d5:8f:33:d6:01:3e:81:34:b8:
                    04:b5:65:8d:5a:84:18:42:00:f7:58:18:7f:d2:e0:
                    aa:77:ad:36:5c:f9:0d:32:6d:50:89:ff:83:ac:cd:
                    d3:b9:40:1d:a7:38:28:35:31:e5:d0:34:93:f5:36:
                    ea:9f:ca:ba:b3:38:8a:d0:a1:cb:ea:50:bb:ed:92:
                    e8:85:fb:dc:a3:f8:b3:88:f9:0d:90:7f:b1:39:bd:
                    a9:5b:a1:de:3f:84:bd:f7:44:3f:ee:fd:13:81:d5:
                    42:d9:94:dc:4a:ea:2f:24:86:1e:26:de:06:5f:a3:
                    7d:0b:fe:69:3e:60:4a:c5:1a:62:e6:27:2f:6f:8e:
                    92:bf:d0:ed:01:8c:9d:78:fc:ed:7f:30:78:e3:0c:
                    c3:19:84:01:f4:c7:80:a6:88:30:43:00:e6:2e:27:
                    e8:a1:7f:4a:f0:18:d1:b3:6c:1e:e4:2d:67:05:46:
                    50:b1:cc:60:15:bc:46:2d:df:b1:94:aa:5e:b1:81:
                    c5:17:e3:be:f6:67:63:da:b2:46:a5:4b:2e:5b:84:
                    ca:7e:2f:f7:09:ce:75:96:cc:04:4e:13:a9:91:11:
                    44:9a:5d:46:ea:29:b6:8e:29:1d:b4:da:f5:94:b3:
                    f1:a0:45:53:72:fb:24:03:40:38:26:34:41:26:9b:
                    3b:d8:04:5f:1e:0a:44:bb:5b:f1:3f:62:df:91:7d:
                    85:10:16:78:3a:fa:31:16:21:d2:cd:c8:43:2a:8e:
                    58:da:36:d3:b5:f6:08:c7:26:c1:08:04:c2:08:f0:
                    c9:34:80:c7:8b:3e:c2:56:59:57:f2:99:0f:2e:f6:
                    60:8c:ad:b5:62:7f:99:5b:9c:aa:55:69:d0:d7:00:
                    87:e4:47:b6:a6:eb:61:a2:33:1e:69:95:3d:3b:4d:
                    02:bc:e3:84:ca:ee:e6:27:fa:20:21:aa:6b:e2:6d:
                    63:12:d4:1f:a0:37:e9:be:f0:77:51:4a:5d:91:d9:
                    b5:9b:2e:be:ec:2a:0e:e9:97:69:5c:98:56:3b:58:
                    74:88:9a:71:44:7f:6e:bd:96:0d:e0:c6:47:eb:31:
                    dc:33:80:35:ba:3b:9d:98:ef:6b:a4:4e:8d:3b:e1:
                    dc:d5:51:40:3a:c4:56:16:e6:b7:de:f2:0b:bf:db:
                    43:55:f9:e0:57:cb:71:8a:70:fb:a2:cf:90:97:15:
                    e1:2d:01
                Exponent: 65537 (0x10001)
        X509v3 extensions:
            X509v3 Subject Key Identifier: 
                9C:FB:D4:59:6B:CA:EA:A0:45:00:20:4E:43:8D:67:E6:F2:A2:A9:97
            X509v3 Authority Key Identifier: 
                keyid:0F:21:B3:45:50:3F:03:23:82:D2:4F:29:7A:96:49:C2:F0:FB:2C:E8
                DirName:/C=SE/ST=Stockholm/L=Stockholm/O=Infrasec Sweden AB/OU=Central Control Unit Verify/CN=CA CCU Verify/emailAddress=cert@infrasec.se
                serial:01

            X509v3 Certificate Policies: 
                Policy: oid_infrasec_cp_idm

            X509v3 Basic Constraints: 
                CA:TRUE
    Signature Algorithm: sha256WithRSAEncryption
         5f:c3:15:96:5f:dc:54:76:73:cc:1d:0f:e7:32:51:35:4e:2f:
         1e:8f:c1:66:1c:1a:36:4e:5a:6b:f8:04:91:5d:61:ea:44:0e:
         63:c2:c8:2f:e2:bc:58:66:39:de:6a:4c:fb:90:9a:f8:5a:0a:
         02:71:59:e2:2c:3e:a5:fc:32:c9:c0:c3:82:de:a9:46:75:49:
         55:14:2e:9c:c1:3b:6f:2b:b7:d1:19:3a:2f:b0:e1:d6:da:2d:
         ac:57:d8:94:e5:8a:c1:1f:89:d3:e3:7d:8a:a3:84:68:fa:3d:
         44:ea:3b:ad:ac:3e:4c:22:2a:89:d1:62:3a:04:ba:42:e1:2b:
         33:0d:68:8d:68:fe:e9:9d:13:d9:b7:60:31:41:2e:03:e4:5a:
         e7:01:45:4a:1a:58:e4:89:62:7c:87:49:20:4c:2c:af:8d:22:
         7c:b9:b7:1a:79:b0:03:2c:c6:b3:8e:4e:e7:4f:13:35:00:72:
         4a:de:f3:47:50:c9:fa:a1:77:30:e6:1c:2e:49:03:5e:63:82:
         14:68:92:0b:2e:36:2f:e7:c0:eb:bd:a3:7f:e2:49:a5:16:a9:
         15:98:c7:a4:d7:f6:c2:40:5d:4a:a8:fa:64:05:19:31:05:56:
         f7:42:1a:89:86:02:45:f2:0d:72:7a:28:eb:8c:25:16:23:9d:
         08:06:72:d9:32:ed:88:d2:01:1f:6c:38:e6:29:55:af:f5:c9:
         e4:81:b6:b3:67:77:20:e6:0c:b3:1b:0c:b4:b8:e3:86:fa:2d:
         d2:5d:ba:4a:1a:5c:61:66:c8:77:1e:4a:eb:7f:3a:97:38:a6:
         22:92:74:d6:86:31:05:10:2e:a4:90:f1:4f:6e:90:98:8f:51:
         76:93:90:ff:da:ff:1a:55:7a:9c:52:97:fa:48:8b:bb:fa:53:
         ba:4b:49:59:43:32:1f:fe:36:e6:a5:98:e3:40:b8:d6:70:cf:
         40:55:f2:38:15:3f:4e:14:9b:e9:9f:0d:61:d1:ca:d7:40:1f:
         7c:70:f3:de:af:9d:eb:52:bb:84:f0:d5:bc:30:30:2d:11:8f:
         22:20:80:65:dc:6d:2a:17:fb:87:49:c3:a9:73:79:c1:f1:f7:
         b2:78:31:99:bf:2f:55:85:6f:f6:35:77:63:64:e3:0e:50:46:
         e4:ec:b4:aa:de:70:7d:bd:0b:ab:d2:56:a0:1a:af:46:05:57:
         26:da:e4:d0:23:13:64:ed:c8:05:a1:5c:18:0f:31:86:f2:35:
         44:39:4f:e5:50:05:d4:02:6e:f5:08:7b:51:04:16:df:9a:29:
         14:ca:60:39:58:e6:af:3e:4e:c2:ed:4b:64:79:5a:2c:94:59:
         9d:a2:b9:c4:1e:5b:76:b3
-----BEGIN CERTIFICATE-----
MIIG7zCCBNegAwIBAgIBBDANBgkqhkiG9w0BAQsFADCBsTELMAkGA1UEBhMCU0Ux
EjAQBgNVBAgTCVN0b2NraG9sbTESMBAGA1UEBxMJU3RvY2tob2xtMRswGQYDVQQK
ExJJbmZyYXNlYyBTd2VkZW4gQUIxJDAiBgNVBAsTG0NlbnRyYWwgQ29udHJvbCBV
bml0IFZlcmlmeTEWMBQGA1UEAxMNQ0EgQ0NVIFZlcmlmeTEfMB0GCSqGSIb3DQEJ
ARYQY2VydEBpbmZyYXNlYy5zZTAeFw0xNTA0MjExNjE4MTFaFw0zNzA0MTQxNjE4
MTFaMIGTMQswCQYDVQQGEwJTRTEbMBkGA1UEChMSSW5mcmFzZWMgU3dlZGVuIEFC
MSQwIgYDVQQLExtDZW50cmFsIENvbnRyb2wgVW5pdCBWZXJpZnkxIDAeBgNVBAMT
F0NBIENDVSBWZXJpZnkgU2VydmVyIENBMR8wHQYJKoZIhvcNAQkBFhBjZXJ0QGlu
ZnJhc2VjLnNlMIICIjANBgkqhkiG9w0BAQEFAAOCAg8AMIICCgKCAgEA5UGMjjTR
mAuiNApV0IyVYeilmsjkWCYdR6rsA207YaK2UKzPQai1f2Z1nbjfXYEG0dQbGagT
2uy+oqPNM8LLUTXVjzPWAT6BNLgEtWWNWoQYQgD3WBh/0uCqd602XPkNMm1Qif+D
rM3TuUAdpzgoNTHl0DST9Tbqn8q6sziK0KHL6lC77ZLohfvco/iziPkNkH+xOb2p
W6HeP4S990Q/7v0TgdVC2ZTcSuovJIYeJt4GX6N9C/5pPmBKxRpi5icvb46Sv9Dt
AYydePztfzB44wzDGYQB9MeApogwQwDmLifooX9K8BjRs2we5C1nBUZQscxgFbxG
Ld+xlKpesYHFF+O+9mdj2rJGpUsuW4TKfi/3Cc51lswEThOpkRFEml1G6im2jikd
tNr1lLPxoEVTcvskA0A4JjRBJps72ARfHgpEu1vxP2LfkX2FEBZ4OvoxFiHSzchD
Ko5Y2jbTtfYIxybBCATCCPDJNIDHiz7CVllX8pkPLvZgjK21Yn+ZW5yqVWnQ1wCH
5Ee2puthojMeaZU9O00CvOOEyu7mJ/ogIapr4m1jEtQfoDfpvvB3UUpdkdm1my6+
7CoO6ZdpXJhWO1h0iJpxRH9uvZYN4MZH6zHcM4A1ujudmO9rpE6NO+Hc1VFAOsRW
Fua33vILv9tDVfngV8txinD7os+QlxXhLQECAwEAAaOCASwwggEoMB0GA1UdDgQW
BBSc+9RZa8rqoEUAIE5DjWfm8qKplzCB3gYDVR0jBIHWMIHTgBQPIbNFUD8DI4LS
Tyl6lknC8Pss6KGBt6SBtDCBsTELMAkGA1UEBhMCU0UxEjAQBgNVBAgTCVN0b2Nr
aG9sbTESMBAGA1UEBxMJU3RvY2tob2xtMRswGQYDVQQKExJJbmZyYXNlYyBTd2Vk
ZW4gQUIxJDAiBgNVBAsTG0NlbnRyYWwgQ29udHJvbCBVbml0IFZlcmlmeTEWMBQG
A1UEAxMNQ0EgQ0NVIFZlcmlmeTEfMB0GCSqGSIb3DQEJARYQY2VydEBpbmZyYXNl
Yy5zZYIBATAYBgNVHSAEETAPMA0GCysGAQQBgYIwBAEFMAwGA1UdEwQFMAMBAf8w
DQYJKoZIhvcNAQELBQADggIBAF/DFZZf3FR2c8wdD+cyUTVOLx6PwWYcGjZOWmv4
BJFdYepEDmPCyC/ivFhmOd5qTPuQmvhaCgJxWeIsPqX8MsnAw4LeqUZ1SVUULpzB
O28rt9EZOi+w4dbaLaxX2JTlisEfidPjfYqjhGj6PUTqO62sPkwiKonRYjoEukLh
KzMNaI1o/umdE9m3YDFBLgPkWucBRUoaWOSJYnyHSSBMLK+NIny5txp5sAMsxrOO
TudPEzUAckre80dQyfqhdzDmHC5JA15jghRokgsuNi/nwOu9o3/iSaUWqRWYx6TX
9sJAXUqo+mQFGTEFVvdCGomGAkXyDXJ6KOuMJRYjnQgGctky7YjSAR9sOOYpVa/1
yeSBtrNndyDmDLMbDLS444b6LdJdukoaXGFmyHceSut/Opc4piKSdNaGMQUQLqSQ
8U9ukJiPUXaTkP/a/xpVepxSl/pIi7v6U7pLSVlDMh/+NualmONAuNZwz0BV8jgV
P04Um+mfDWHRytdAH3xw896vnetSu4Tw1bwwMC0RjyIggGXcbSoX+4dJw6lzecHx
97J4MZm/L1WFb/Y1d2Nk4w5QRuTstKrecH29C6vSVqAar0YFVyba5NAjE2TtyAWh
XBgPMYbyNUQ5T+VQBdQCbvUIe1EEFt+aKRTKYDlY5q8+TsLtS2R5WiyUWZ2iucQe
W3az
-----END CERTIFICATE-----
-----BEGIN CERTIFICATE-----
MIIExDCCA6ygAwIBAgIJALF4CQwxOLH9MA0GCSqGSIb3DQEBBQUAMIGcMQswCQYD
VQQGEwJTRTEbMBkGA1UEChMSSW5mcmFzZWMgU3dlZGVuIEFCMR0wGwYDVQQLExRD
ZW50cmFsIENvbnRyb2wgVW5pdDEwMC4GA1UEAxMnSW5mcmFzZWMgQ2VudHJhbCBD
b250cm9sIFVuaXQgVmVyaWZ5IENBMR8wHQYJKoZIhvcNAQkBFhBjZXJ0QGluZnJh
c2VjLnNlMB4XDTEwMTEwNDE0MzQ0MFoXDTM1MTAyOTE0MzQ0MFowgZwxCzAJBgNV
BAYTAlNFMRswGQYDVQQKExJJbmZyYXNlYyBTd2VkZW4gQUIxHTAbBgNVBAsTFENl
bnRyYWwgQ29udHJvbCBVbml0MTAwLgYDVQQDEydJbmZyYXNlYyBDZW50cmFsIENv
bnRyb2wgVW5pdCBWZXJpZnkgQ0ExHzAdBgkqhkiG9w0BCQEWEGNlcnRAaW5mcmFz
ZWMuc2UwggEiMA0GCSqGSIb3DQEBAQUAA4IBDwAwggEKAoIBAQCsdUAMBa7gdJ+b
1ifhP2UD4u3dRMyf0pSrceFHWt2z3i7TOqlnnb6pjLnaRRZov6GPMjonRgNh7Q7O
/+tnKrJ4LJhNOhDtGMvav8z+5N8ePH34bo9SL/+rt9ORtQ0CJAHWeRii+d+gLDMP
KPUT7WXP3q5EUtdzYrGHKO5aQw12bjt69RVjEKnpgk+wLI2NJH9brvkE//2AE5NG
usjC54pMq3IzprWQnvr/whj24UX8UqkMIxVh9SIE0ZPwI+J+nFEkQcdQcEvIlBFl
0rThwv2X7cS9IrwiTfMfxzjLknQy3ny5N6G5UcrtvpPZ+Su/42rF54Hv7sp4GNQa
A7znIRNVAgMBAAGjggEFMIIBATAdBgNVHQ4EFgQUXpy0Kv4b/Mrong6lfBJhsIgj
VqQwgdEGA1UdIwSByTCBxoAUXpy0Kv4b/Mrong6lfBJhsIgjVqShgaKkgZ8wgZwx
CzAJBgNVBAYTAlNFMRswGQYDVQQKExJJbmZyYXNlYyBTd2VkZW4gQUIxHTAbBgNV
BAsTFENlbnRyYWwgQ29udHJvbCBVbml0MTAwLgYDVQQDEydJbmZyYXNlYyBDZW50
cmFsIENvbnRyb2wgVW5pdCBWZXJpZnkgQ0ExHzAdBgkqhkiG9w0BCQEWEGNlcnRA
aW5mcmFzZWMuc2WCCQCxeAkMMTix/TAMBgNVHRMEBTADAQH/MA0GCSqGSIb3DQEB
BQUAA4IBAQAndLVWTYzXUOJYFtcvIb4vVVMDfsIe0lNrsAmA4xqvTlnIhRQ2/dVl
lDZmvBtqAOE0W3EPMsVglOdX+3KLbCFv4TrPsnV37y50zzc80jLRgMzsv/X6tWVU
jvj/0DHpBzjrp9o83f8QVAp3DeK08/gb32wPRE49ymto2pQ+jJqpASQdbMOwy7mi
m4X01Y+bAqhDQJQA56RqnDfh0wTA8CKyY2JORfVI8nCkJ+oMIg0VQ7kz9damOcJW
4Quu4DvYH5qd7gCkV3bVoE1vYpYX38rdQR9yLZUzv8gnrOiQT6Wp+GfmtndRHJsS
DJRZNvg16iGbBZ6DfGISJxTT2qNq+NzM
-----END CERTIFICATE-----

